target datalayout = "e-m:e-p270:32:32-p271:32:32-p272:64:64-i64:64-i128:128-f80:128-n8:16:32:64-S128"
target triple = "x86_64-pc-linux-gnu"

%struct.LogicalTapeSet = type { ptr, ptr, i32, i64, i64, i64, i8, ptr, i64, i64, i8 }
%struct.LogicalTape = type { ptr, i8, i8, i8, i64, i64, i64, i64, ptr, i32, i32, i32, i32, ptr, i32, i32 }
%struct.TapeBlockTrailer = type { i64, i64 }

@.str.1 = private unnamed_addr constant [10 x i8] c"logtape.c\00", align 1
@.str.3 = private unnamed_addr constant [23 x i8] c"unexpected end of tape\00", align 1
@__func__.LogicalTapeBackspace = private unnamed_addr constant [21 x i8] c"LogicalTapeBackspace\00", align 1
@.str.4 = private unnamed_addr constant [55 x i8] c"broken tape, next of block %lld is %lld, expected %lld\00", align 1
@.str.6 = private unnamed_addr constant [47 x i8] c"could not seek to block %lld of temporary file\00", align 1
@__func__.ltsReadBlock = private unnamed_addr constant [13 x i8] c"ltsReadBlock\00", align 1

; Function Attrs: nounwind uwtable
define internal void @ltsReadBlock(ptr noundef %0, i64 noundef %1, ptr noundef %2) #0 {
  %4 = alloca ptr, align 8
  %5 = alloca i64, align 8
  %6 = alloca ptr, align 8
  store ptr %0, ptr %4, align 8
  store i64 %1, ptr %5, align 8
  store ptr %2, ptr %6, align 8
  %7 = load ptr, ptr %4, align 8
  %8 = getelementptr inbounds nuw %struct.LogicalTapeSet, ptr %7, i32 0, i32 0
  %9 = load ptr, ptr %8, align 8
  %10 = load i64, ptr %5, align 8
  %11 = call i32 @BufFileSeekBlock(ptr noundef %9, i64 noundef %10)
  %12 = icmp ne i32 %11, 0
  br i1 %12, label %13, label %25

13:                                               ; preds = %3
  br label %14

14:                                               ; preds = %13
  br i1 true, label %15, label %17

15:                                               ; preds = %14
  %16 = call zeroext i1 @errstart_cold(i32 noundef 21, ptr noundef null) #8
  br i1 %16, label %19, label %23

17:                                               ; preds = %14
  %18 = call zeroext i1 @errstart(i32 noundef 21, ptr noundef null)
  br i1 %18, label %19, label %23

19:                                               ; preds = %17, %15
  %20 = call i32 @errcode_for_file_access()
  %21 = load i64, ptr %5, align 8
  %22 = call i32 (ptr, ...) @errmsg(ptr noundef @.str.6, i64 noundef %21)
  call void @errfinish(ptr noundef @.str.1, i32 noundef 288, ptr noundef @__func__.ltsReadBlock)
  br label %23

23:                                               ; preds = %19, %17, %15
  unreachable

24:                                               ; No predecessors!
  br label %25

25:                                               ; preds = %24, %3
  %26 = load ptr, ptr %4, align 8
  %27 = getelementptr inbounds nuw %struct.LogicalTapeSet, ptr %26, i32 0, i32 0
  %28 = load ptr, ptr %27, align 8
  %29 = load ptr, ptr %6, align 8
  call void @BufFileReadExact(ptr noundef %28, ptr noundef %29, i64 noundef 8192)
  ret void
}

; Function Attrs: nounwind uwtable
define internal void @ltsInitReadBuffer(ptr noundef %0) #0 {
  %2 = alloca ptr, align 8
  store ptr %0, ptr %2, align 8
  %3 = load ptr, ptr %2, align 8
  %4 = getelementptr inbounds nuw %struct.LogicalTape, ptr %3, i32 0, i32 9
  %5 = load i32, ptr %4, align 8
  %6 = sext i32 %5 to i64
  %7 = call ptr @palloc(i64 noundef %6)
  %8 = load ptr, ptr %2, align 8
  %9 = getelementptr inbounds nuw %struct.LogicalTape, ptr %8, i32 0, i32 8
  store ptr %7, ptr %9, align 8
  %10 = load ptr, ptr %2, align 8
  %11 = getelementptr inbounds nuw %struct.LogicalTape, ptr %10, i32 0, i32 4
  %12 = load i64, ptr %11, align 8
  %13 = load ptr, ptr %2, align 8
  %14 = getelementptr inbounds nuw %struct.LogicalTape, ptr %13, i32 0, i32 6
  store i64 %12, ptr %14, align 8
  %15 = load ptr, ptr %2, align 8
  %16 = getelementptr inbounds nuw %struct.LogicalTape, ptr %15, i32 0, i32 11
  store i32 0, ptr %16, align 8
  %17 = load ptr, ptr %2, align 8
  %18 = getelementptr inbounds nuw %struct.LogicalTape, ptr %17, i32 0, i32 12
  store i32 0, ptr %18, align 4
  %19 = load ptr, ptr %2, align 8
  %20 = call zeroext i1 @ltsReadFillBuffer(ptr noundef %19)
  ret void
}

; Function Attrs: nounwind uwtable
define dso_local i64 @LogicalTapeBackspace(ptr noundef %0, i64 noundef %1) #0 {
  %3 = alloca i64, align 8
  %4 = alloca ptr, align 8
  %5 = alloca i64, align 8
  %6 = alloca i64, align 8
  %7 = alloca i32, align 4
  %8 = alloca i64, align 8
  store ptr %0, ptr %4, align 8
  store i64 %1, ptr %5, align 8
  call void @llvm.lifetime.start.p0(i64 8, ptr %6) #7
  store i64 0, ptr %6, align 8
  %9 = load ptr, ptr %4, align 8
  %10 = getelementptr inbounds nuw %struct.LogicalTape, ptr %9, i32 0, i32 8
  %11 = load ptr, ptr %10, align 8
  %12 = icmp eq ptr %11, null
  br i1 %12, label %13, label %15

13:                                               ; preds = %2
  %14 = load ptr, ptr %4, align 8
  call void @ltsInitReadBuffer(ptr noundef %14)
  br label %15

15:                                               ; preds = %13, %2
  %16 = load i64, ptr %5, align 8
  %17 = load ptr, ptr %4, align 8
  %18 = getelementptr inbounds nuw %struct.LogicalTape, ptr %17, i32 0, i32 11
  %19 = load i32, ptr %18, align 8
  %20 = sext i32 %19 to i64
  %21 = icmp ule i64 %16, %20
  br i1 %21, label %22, label %30

22:                                               ; preds = %15
  %23 = load i64, ptr %5, align 8
  %24 = trunc i64 %23 to i32
  %25 = load ptr, ptr %4, align 8
  %26 = getelementptr inbounds nuw %struct.LogicalTape, ptr %25, i32 0, i32 11
  %27 = load i32, ptr %26, align 8
  %28 = sub i32 %27, %24
  store i32 %28, ptr %26, align 8
  %29 = load i64, ptr %5, align 8
  store i64 %29, ptr %3, align 8
  store i32 1, ptr %7, align 4
  br label %137

30:                                               ; preds = %15
  %31 = load ptr, ptr %4, align 8
  %32 = getelementptr inbounds nuw %struct.LogicalTape, ptr %31, i32 0, i32 11
  %33 = load i32, ptr %32, align 8
  %34 = sext i32 %33 to i64
  store i64 %34, ptr %6, align 8
  br label %35

35:                                               ; preds = %128, %30
  %36 = load i64, ptr %5, align 8
  %37 = load i64, ptr %6, align 8
  %38 = icmp ugt i64 %36, %37
  br i1 %38, label %39, label %129

39:                                               ; preds = %35
  call void @llvm.lifetime.start.p0(i64 8, ptr %8) #7
  %40 = load ptr, ptr %4, align 8
  %41 = getelementptr inbounds nuw %struct.LogicalTape, ptr %40, i32 0, i32 8
  %42 = load ptr, ptr %41, align 8
  %43 = getelementptr inbounds nuw i8, ptr %42, i64 8176
  %44 = getelementptr inbounds nuw %struct.TapeBlockTrailer, ptr %43, i32 0, i32 0
  %45 = load i64, ptr %44, align 8
  store i64 %45, ptr %8, align 8
  %46 = load i64, ptr %8, align 8
  %47 = icmp eq i64 %46, -1
  br i1 %47, label %48, label %71

48:                                               ; preds = %39
  %49 = load ptr, ptr %4, align 8
  %50 = getelementptr inbounds nuw %struct.LogicalTape, ptr %49, i32 0, i32 5
  %51 = load i64, ptr %50, align 8
  %52 = load ptr, ptr %4, align 8
  %53 = getelementptr inbounds nuw %struct.LogicalTape, ptr %52, i32 0, i32 4
  %54 = load i64, ptr %53, align 8
  %55 = icmp ne i64 %51, %54
  br i1 %55, label %56, label %67

56:                                               ; preds = %48
  br label %57

57:                                               ; preds = %56
  br i1 true, label %58, label %60

58:                                               ; preds = %57
  %59 = call zeroext i1 @errstart_cold(i32 noundef 21, ptr noundef null) #8
  br i1 %59, label %62, label %64

60:                                               ; preds = %57
  %61 = call zeroext i1 @errstart(i32 noundef 21, ptr noundef null)
  br i1 %61, label %62, label %64

62:                                               ; preds = %60, %58
  %63 = call i32 (ptr, ...) @errmsg_internal(ptr noundef @.str.3)
  call void @errfinish(ptr noundef @.str.1, i32 noundef 1095, ptr noundef @__func__.LogicalTapeBackspace)
  br label %64

64:                                               ; preds = %62, %60, %58
  unreachable

65:                                               ; No predecessors!
  br label %66

66:                                               ; preds = %65
  br label %67

67:                                               ; preds = %66, %48
  %68 = load ptr, ptr %4, align 8
  %69 = getelementptr inbounds nuw %struct.LogicalTape, ptr %68, i32 0, i32 11
  store i32 0, ptr %69, align 8
  %70 = load i64, ptr %6, align 8
  store i64 %70, ptr %3, align 8
  store i32 1, ptr %7, align 4
  br label %126

71:                                               ; preds = %39
  %72 = load ptr, ptr %4, align 8
  %73 = getelementptr inbounds nuw %struct.LogicalTape, ptr %72, i32 0, i32 0
  %74 = load ptr, ptr %73, align 8
  %75 = load i64, ptr %8, align 8
  %76 = load ptr, ptr %4, align 8
  %77 = getelementptr inbounds nuw %struct.LogicalTape, ptr %76, i32 0, i32 8
  %78 = load ptr, ptr %77, align 8
  call void @ltsReadBlock(ptr noundef %74, i64 noundef %75, ptr noundef %78)
  %79 = load ptr, ptr %4, align 8
  %80 = getelementptr inbounds nuw %struct.LogicalTape, ptr %79, i32 0, i32 8
  %81 = load ptr, ptr %80, align 8
  %82 = getelementptr inbounds nuw i8, ptr %81, i64 8176
  %83 = getelementptr inbounds nuw %struct.TapeBlockTrailer, ptr %82, i32 0, i32 1
  %84 = load i64, ptr %83, align 8
  %85 = load ptr, ptr %4, align 8
  %86 = getelementptr inbounds nuw %struct.LogicalTape, ptr %85, i32 0, i32 5
  %87 = load i64, ptr %86, align 8
  %88 = icmp ne i64 %84, %87
  br i1 %88, label %89, label %110

89:                                               ; preds = %71
  br label %90

90:                                               ; preds = %89
  br i1 true, label %91, label %93

91:                                               ; preds = %90
  %92 = call zeroext i1 @errstart_cold(i32 noundef 21, ptr noundef null) #8
  br i1 %92, label %95, label %107

93:                                               ; preds = %90
  %94 = call zeroext i1 @errstart(i32 noundef 21, ptr noundef null)
  br i1 %94, label %95, label %107

95:                                               ; preds = %93, %91
  %96 = load i64, ptr %8, align 8
  %97 = load ptr, ptr %4, align 8
  %98 = getelementptr inbounds nuw %struct.LogicalTape, ptr %97, i32 0, i32 8
  %99 = load ptr, ptr %98, align 8
  %100 = getelementptr inbounds nuw i8, ptr %99, i64 8176
  %101 = getelementptr inbounds nuw %struct.TapeBlockTrailer, ptr %100, i32 0, i32 1
  %102 = load i64, ptr %101, align 8
  %103 = load ptr, ptr %4, align 8
  %104 = getelementptr inbounds nuw %struct.LogicalTape, ptr %103, i32 0, i32 5
  %105 = load i64, ptr %104, align 8
  %106 = call i32 (ptr, ...) @errmsg_internal(ptr noundef @.str.4, i64 noundef %96, i64 noundef %102, i64 noundef %105)
  call void @errfinish(ptr noundef @.str.1, i32 noundef 1106, ptr noundef @__func__.LogicalTapeBackspace)
  br label %107

107:                                              ; preds = %95, %93, %91
  unreachable

108:                                              ; No predecessors!
  br label %109

109:                                              ; preds = %108
  br label %110

110:                                              ; preds = %109, %71
  %111 = load ptr, ptr %4, align 8
  %112 = getelementptr inbounds nuw %struct.LogicalTape, ptr %111, i32 0, i32 12
  store i32 8176, ptr %112, align 4
  %113 = load i64, ptr %8, align 8
  %114 = load ptr, ptr %4, align 8
  %115 = getelementptr inbounds nuw %struct.LogicalTape, ptr %114, i32 0, i32 5
  store i64 %113, ptr %115, align 8
  %116 = load ptr, ptr %4, align 8
  %117 = getelementptr inbounds nuw %struct.LogicalTape, ptr %116, i32 0, i32 8
  %118 = load ptr, ptr %117, align 8
  %119 = getelementptr inbounds nuw i8, ptr %118, i64 8176
  %120 = getelementptr inbounds nuw %struct.TapeBlockTrailer, ptr %119, i32 0, i32 1
  %121 = load i64, ptr %120, align 8
  %122 = load ptr, ptr %4, align 8
  %123 = getelementptr inbounds nuw %struct.LogicalTape, ptr %122, i32 0, i32 6
  store i64 %121, ptr %123, align 8
  %124 = load i64, ptr %6, align 8
  %125 = add i64 %124, 8176
  store i64 %125, ptr %6, align 8
  store i32 0, ptr %7, align 4
  br label %126

126:                                              ; preds = %110, %67
  call void @llvm.lifetime.end.p0(i64 8, ptr %8) #7
  %127 = load i32, ptr %7, align 4
  switch i32 %127, label %137 [
    i32 0, label %128
  ]

128:                                              ; preds = %126
  br label %35, !llvm.loop !14

129:                                              ; preds = %35
  %130 = load i64, ptr %6, align 8
  %131 = load i64, ptr %5, align 8
  %132 = sub i64 %130, %131
  %133 = trunc i64 %132 to i32
  %134 = load ptr, ptr %4, align 8
  %135 = getelementptr inbounds nuw %struct.LogicalTape, ptr %134, i32 0, i32 11
  store i32 %133, ptr %135, align 8
  %136 = load i64, ptr %5, align 8
  store i64 %136, ptr %3, align 8
  store i32 1, ptr %7, align 4
  br label %137

137:                                              ; preds = %129, %126, %22
  call void @llvm.lifetime.end.p0(i64 8, ptr %6) #7
  %138 = load i64, ptr %3, align 8
  ret i64 %138
}