; Function Attrs: nounwind uwtable
define dso_local i64 @LogicalTapeBackspace(ptr noundef captures(none) %0, i64 noundef %1) local_unnamed_addr #0 {
  %3 = getelementptr inbounds nuw i8, ptr %0, i64 48
  %4 = load ptr, ptr %3, align 8
  %5 = icmp eq ptr %4, null
  br i1 %5, label %6, label %17

6:                                                ; preds = %2
  %7 = getelementptr inbounds nuw i8, ptr %0, i64 56
  %8 = load i32, ptr %7, align 8
  %9 = sext i32 %8 to i64
  %10 = tail call ptr @palloc(i64 noundef %9) #10
  store ptr %10, ptr %3, align 8
  %11 = getelementptr inbounds nuw i8, ptr %0, i64 16
  %12 = load i64, ptr %11, align 8
  %13 = getelementptr inbounds nuw i8, ptr %0, i64 32
  store i64 %12, ptr %13, align 8
  %14 = getelementptr inbounds nuw i8, ptr %0, i64 64
  store i32 0, ptr %14, align 8
  %15 = getelementptr inbounds nuw i8, ptr %0, i64 68
  store i32 0, ptr %15, align 4
  %16 = tail call fastcc zeroext i1 @ltsReadFillBuffer(ptr noundef nonnull %0)
  br label %17

17:                                               ; preds = %6, %2
  %18 = getelementptr inbounds nuw i8, ptr %0, i64 64
  %19 = load i32, ptr %18, align 8
  %20 = sext i32 %19 to i64
  %.not = icmp ugt i64 %1, %20
  br i1 %.not, label %.preheader, label %24

.preheader:                                       ; preds = %17
  %21 = getelementptr inbounds nuw i8, ptr %0, i64 24
  %22 = getelementptr inbounds nuw i8, ptr %0, i64 68
  %23 = getelementptr inbounds nuw i8, ptr %0, i64 32
  %.pre = load ptr, ptr %3, align 8
  br label %27

24:                                               ; preds = %17
  %25 = trunc i64 %1 to i32
  %26 = sub i32 %19, %25
  br label %.thread

27:                                               ; preds = %.preheader, %58
  %28 = phi ptr [ %.pre, %.preheader ], [ %47, %58 ]
  %.03653 = phi i64 [ %20, %.preheader ], [ %60, %58 ]
  %29 = getelementptr inbounds nuw i8, ptr %28, i64 8176
  %30 = load i64, ptr %29, align 8
  %.not44 = icmp eq i64 %30, -1
  br i1 %.not44, label %31, label %38

31:                                               ; preds = %27
  %32 = load i64, ptr %21, align 8
  %33 = getelementptr inbounds nuw i8, ptr %0, i64 16
  %34 = load i64, ptr %33, align 8
  %.not43 = icmp eq i64 %32, %34
  br i1 %.not43, label %.thread, label %35

35:                                               ; preds = %31
  %36 = tail call zeroext i1 @errstart_cold(i32 noundef 21, ptr noundef null) #11
  tail call void @llvm.assume(i1 %36)
  %37 = tail call i32 (ptr, ...) @errmsg_internal(ptr noundef nonnull @.str.3) #10
  tail call void @errfinish(ptr noundef nonnull @.str.1, i32 noundef 1095, ptr noundef nonnull @__func__.LogicalTapeBackspace) #10
  unreachable

38:                                               ; preds = %27
  %39 = load ptr, ptr %0, align 8
  %40 = load ptr, ptr %39, align 8
  %41 = tail call i32 @BufFileSeekBlock(ptr noundef %40, i64 noundef %30) #10
  %.not.i = icmp eq i32 %41, 0
  br i1 %.not.i, label %ltsReadBlock.exit, label %42

42:                                               ; preds = %38
  %43 = tail call zeroext i1 @errstart_cold(i32 noundef 21, ptr noundef null) #11
  tail call void @llvm.assume(i1 %43)
  %44 = tail call i32 @errcode_for_file_access() #10
  %45 = tail call i32 (ptr, ...) @errmsg(ptr noundef nonnull @.str.6, i64 noundef %30) #10
  tail call void @errfinish(ptr noundef nonnull @.str.1, i32 noundef 288, ptr noundef nonnull @__func__.ltsReadBlock) #10
  unreachable

ltsReadBlock.exit:                                ; preds = %38
  %46 = load ptr, ptr %39, align 8
  tail call void @BufFileReadExact(ptr noundef %46, ptr noundef nonnull %28, i64 noundef 8192) #10
  %47 = load ptr, ptr %3, align 8
  %48 = getelementptr inbounds nuw i8, ptr %47, i64 8184
  %49 = load i64, ptr %48, align 8
  %50 = load i64, ptr %21, align 8
  %.not42 = icmp eq i64 %49, %50
  br i1 %.not42, label %58, label %51

51:                                               ; preds = %ltsReadBlock.exit
  %52 = tail call zeroext i1 @errstart_cold(i32 noundef 21, ptr noundef null) #11
  tail call void @llvm.assume(i1 %52)
  %53 = load ptr, ptr %3, align 8
  %54 = getelementptr inbounds nuw i8, ptr %53, i64 8184
  %55 = load i64, ptr %54, align 8
  %56 = load i64, ptr %21, align 8
  %57 = tail call i32 (ptr, ...) @errmsg_internal(ptr noundef nonnull @.str.4, i64 noundef %30, i64 noundef %55, i64 noundef %56) #10
  tail call void @errfinish(ptr noundef nonnull @.str.1, i32 noundef 1106, ptr noundef nonnull @__func__.LogicalTapeBackspace) #10
  unreachable

58:                                               ; preds = %ltsReadBlock.exit
  store i32 8176, ptr %22, align 4
  store i64 %30, ptr %21, align 8
  %59 = load i64, ptr %48, align 8
  store i64 %59, ptr %23, align 8
  %60 = add i64 %.03653, 8176
  %61 = icmp ugt i64 %1, %60
  br i1 %61, label %27, label %62, !llvm.loop !14

62:                                               ; preds = %58
  %63 = sub nuw i64 %60, %1
  %64 = trunc i64 %63 to i32
  br label %.thread

.thread:                                          ; preds = %31, %62, %24
  %.sink = phi i32 [ %64, %62 ], [ %26, %24 ], [ 0, %31 ]
  %.0 = phi i64 [ %1, %62 ], [ %1, %24 ], [ %.03653, %31 ]
  store i32 %.sink, ptr %18, align 8
  ret i64 %.0
}